; Function Attrs: mustprogress nofree nounwind sspstrong willreturn memory(argmem: readwrite) uwtable
define range(i32 -1, 1) i32 @rsock_unknown_level_to_int(ptr noundef readonly captures(none) %0, i64 noundef %1, ptr noundef writeonly captures(none) %2) #1 {
  switch i64 %1, label %8 [
    i64 6, label %4
    i64 10, label %6
  ]

4:                                                ; preds = %3
  %bcmp8 = tail call i32 @bcmp(ptr noundef nonnull dereferenceable(6) %0, ptr noundef nonnull dereferenceable(6) @.str.136, i64 6)
  %5 = icmp eq i32 %bcmp8, 0
  br i1 %5, label %.sink.split, label %8

6:                                                ; preds = %3
  %bcmp = tail call i32 @bcmp(ptr noundef nonnull dereferenceable(10) %0, ptr noundef nonnull dereferenceable(10) @.str.137, i64 10)
  %7 = icmp eq i32 %bcmp, 0
  br i1 %7, label %.sink.split, label %8

.sink.split:                                      ; preds = %6, %4
  store i32 1, ptr %2, align 4, !tbaa !6
  br label %8

8:                                                ; preds = %.sink.split, %3, %6, %4
  %.0 = phi i32 [ -1, %4 ], [ -1, %6 ], [ -1, %3 ], [ 0, %.sink.split ]
  ret i32 %.0
}